target datalayout = "e-m:e-p270:32:32-p271:32:32-p272:64:64-i64:64-i128:128-f80:128-n8:16:32:64-S128"
target triple = "x86_64-pc-linux-gnu"

%struct.slurmctld_lock_t = type { i32, i32, i32, i32, i32 }
%struct.slurm_conf_t = type { i64, ptr, i16, ptr, ptr, ptr, ptr, ptr, i16, ptr, ptr, ptr, ptr, ptr, ptr, ptr, i16, ptr, ptr, ptr, ptr, i16, ptr, ptr, ptr, i64, ptr, ptr, ptr, ptr, i16, ptr, ptr, i16, i32, ptr, i32, ptr, i32, i32, ptr, ptr, i64, i64, ptr, i16, i16, ptr, i32, i32, ptr, i32, ptr, i32, i16, i16, i16, ptr, i16, i16, ptr, ptr, i32, i16, i16, ptr, i32, i16, ptr, ptr, ptr, ptr, i16, ptr, ptr, ptr, ptr, i32, ptr, ptr, ptr, ptr, i16, i16, ptr, i32, i32, i32, i16, i16, ptr, ptr, i16, ptr, ptr, i32, i32, i32, i32, i32, i64, i32, i32, i16, ptr, ptr, i32, ptr, ptr, ptr, i16, i32, ptr, ptr, i16, ptr, ptr, i32, i16, ptr, ptr, ptr, ptr, i32, i32, i16, i16, i32, ptr, i16, ptr, i32, i32, i32, i32, i32, i32, ptr, i16, ptr, ptr, i32, i16, ptr, i32, i16, i16, ptr, ptr, ptr, i16, ptr, ptr, ptr, ptr, i16, i16, ptr, i16, ptr, i16, ptr, i16, ptr, i16, ptr, ptr, ptr, ptr, i16, ptr, ptr, ptr, i32, ptr, i32, ptr, ptr, i16, ptr, ptr, i32, i16, ptr, ptr, i16, i16, ptr, i16, ptr, ptr, ptr, i32, ptr, i16, i16, ptr, ptr, ptr, ptr, ptr, ptr, ptr, ptr, i16, i32, i16, ptr, ptr, ptr, ptr, i32, ptr, ptr, ptr, i16, ptr, ptr, ptr, i16, ptr, i16, ptr, i16, i16, ptr }

@slurm_conf = external global %struct.slurm_conf_t, align 8
@.str.20 = private unnamed_addr constant [64 x i8] c"%s: expansion of node specification '%s' resulted in zero nodes\00", align 1
@acct_db_conn = external global ptr, align 8
@.str.133 = private unnamed_addr constant [10 x i8] c"cons_tres\00", align 1
@.str.135 = private unnamed_addr constant [3 x i8] c"%s\00", align 1
@__const.delete_nodes.write_lock = private unnamed_addr constant %struct.slurmctld_lock_t { i32 1, i32 2, i32 2, i32 2, i32 0 }, align 4
@.str.140 = private unnamed_addr constant [52 x i8] c"Node deletion only compatible with select/cons_tres\00", align 1
@__func__.delete_nodes = private unnamed_addr constant [13 x i8] c"delete_nodes\00", align 1
@.str.141 = private unnamed_addr constant [27 x i8] c"failed to delete node '%s'\00", align 1
@.str.142 = private unnamed_addr constant [26 x i8] c"failed to delete nodes %s\00", align 1
@part_list = external global ptr, align 8
@.str.167 = private unnamed_addr constant [33 x i8] c"Unable to find node %s to delete\00", align 1

; Function Attrs: nounwind uwtable
define internal void @_update_parts() #0 {
  %1 = load ptr, ptr @part_list, align 8
  %2 = call i32 @list_for_each(ptr noundef %1, ptr noundef @_foreach_build_part_bitmap, ptr noundef null)
  call void @set_partition_tres(i1 noundef zeroext false)
  ret void
}

; Function Attrs: nounwind uwtable
define internal i32 @_delete_node(ptr noundef %0) #0 {
  %2 = alloca i32, align 4
  %3 = alloca ptr, align 8
  %4 = alloca ptr, align 8
  %5 = alloca i32, align 4
  store ptr %0, ptr %3, align 8
  call void @llvm.lifetime.start.p0(i64 8, ptr %4) #10
  %6 = load ptr, ptr %3, align 8
  %7 = call ptr @find_node_record(ptr noundef %6)
  store ptr %7, ptr %4, align 8
  %8 = load ptr, ptr %4, align 8
  %9 = icmp ne ptr %8, null
  br i1 %9, label %13, label %10

10:                                               ; preds = %1
  %11 = load ptr, ptr %3, align 8
  %12 = call i32 (ptr, ...) @error(ptr noundef @.str.167, ptr noundef %11)
  store i32 2018, ptr %2, align 4
  store i32 1, ptr %5, align 4
  br label %16

13:                                               ; preds = %1
  %14 = load ptr, ptr %4, align 8
  %15 = call i32 @_delete_node_ptr(ptr noundef %14)
  store i32 %15, ptr %2, align 4
  store i32 1, ptr %5, align 4
  br label %16

16:                                               ; preds = %13, %10
  call void @llvm.lifetime.end.p0(i64 8, ptr %4) #10
  %17 = load i32, ptr %2, align 4
  ret i32 %17
}

; Function Attrs: nounwind uwtable
define dso_local i32 @delete_nodes(ptr noundef %0, ptr noundef %1) #0 {
  %3 = alloca i32, align 4
  %4 = alloca ptr, align 8
  %5 = alloca ptr, align 8
  %6 = alloca ptr, align 8
  %7 = alloca ptr, align 8
  %8 = alloca i8, align 1
  %9 = alloca i32, align 4
  %10 = alloca ptr, align 8
  %11 = alloca %struct.slurmctld_lock_t, align 8
  %12 = alloca i32, align 4
  %13 = alloca i32, align 4
  %14 = alloca ptr, align 8
  store ptr %0, ptr %4, align 8
  store ptr %1, ptr %5, align 8
  call void @llvm.lifetime.start.p0(i64 8, ptr %6) #10
  call void @llvm.lifetime.start.p0(i64 8, ptr %7) #10
  call void @llvm.lifetime.start.p0(i64 1, ptr %8) #10
  store i8 0, ptr %8, align 1
  call void @llvm.lifetime.start.p0(i64 4, ptr %9) #10
  store i32 0, ptr %9, align 4
  call void @llvm.lifetime.start.p0(i64 8, ptr %10) #10
  store ptr null, ptr %10, align 8
  call void @llvm.lifetime.start.p0(i64 20, ptr %11) #10
  call void @llvm.memcpy.p0.p0.i64(ptr align 4 %11, ptr align 4 @__const.delete_nodes.write_lock, i64 20, i1 false)
  %15 = load ptr, ptr getelementptr inbounds nuw (%struct.slurm_conf_t, ptr @slurm_conf, i32 0, i32 167), align 8
  %16 = call ptr @xstrstr(ptr noundef %15, ptr noundef @.str.133)
  %17 = icmp ne ptr %16, null
  br i1 %17, label %24, label %18

18:                                               ; preds = %2
  %19 = call ptr @xstrdup(ptr noundef @.str.140)
  %20 = load ptr, ptr %5, align 8
  store ptr %19, ptr %20, align 8
  %21 = load ptr, ptr %5, align 8
  %22 = load ptr, ptr %21, align 8
  %23 = call i32 (ptr, ...) @error(ptr noundef @.str.135, ptr noundef %22)
  store i32 2002, ptr %3, align 4
  store i32 1, ptr %12, align 4
  br label %112

24:                                               ; preds = %2
  call void @lock_slurmctld(ptr noundef byval(%struct.slurmctld_lock_t) align 8 %11)
  %25 = load ptr, ptr %4, align 8
  %26 = call ptr @nodespec_to_hostlist(ptr noundef %25, i1 noundef zeroext true, ptr noundef null)
  store ptr %26, ptr %7, align 8
  %27 = icmp ne ptr %26, null
  br i1 %27, label %29, label %28

28:                                               ; preds = %24
  store i32 2018, ptr %9, align 4
  br label %96

29:                                               ; preds = %24
  %30 = load ptr, ptr %7, align 8
  %31 = call i32 @hostlist_count(ptr noundef %30)
  %32 = icmp ne i32 %31, 0
  br i1 %32, label %45, label %33

33:                                               ; preds = %29
  br label %34

34:                                               ; preds = %33
  br label %35

35:                                               ; preds = %34
  %36 = call i32 @get_log_level()
  %37 = icmp sge i32 %36, 3
  br i1 %37, label %38, label %40

38:                                               ; preds = %35
  %39 = load ptr, ptr %4, align 8
  call void (i32, ptr, ...) @log_var(i32 noundef 3, ptr noundef @.str.20, ptr noundef @__func__.delete_nodes, ptr noundef %39)
  br label %40

40:                                               ; preds = %38, %35
  br label %41

41:                                               ; preds = %40
  br label %42

42:                                               ; preds = %41
  br label %43

43:                                               ; preds = %42
  br label %44

44:                                               ; preds = %43
  store i32 2018, ptr %9, align 4
  br label %96

45:                                               ; preds = %29
  br label %46

46:                                               ; preds = %68, %45
  %47 = load ptr, ptr %7, align 8
  %48 = call ptr @hostlist_shift(ptr noundef %47)
  store ptr %48, ptr %6, align 8
  %49 = icmp ne ptr %48, null
  br i1 %49, label %50, label %73

50:                                               ; preds = %46
  call void @llvm.lifetime.start.p0(i64 4, ptr %13) #10
  %51 = load ptr, ptr %6, align 8
  %52 = call i32 @_delete_node(ptr noundef %51)
  store i32 %52, ptr %13, align 4
  %53 = icmp ne i32 %52, 0
  br i1 %53, label %54, label %67

54:                                               ; preds = %50
  %55 = load ptr, ptr %6, align 8
  %56 = call i32 (ptr, ...) @error(ptr noundef @.str.141, ptr noundef %55)
  %57 = load ptr, ptr %10, align 8
  %58 = icmp ne ptr %57, null
  br i1 %58, label %62, label %59

59:                                               ; preds = %54
  %60 = load ptr, ptr %6, align 8
  %61 = call ptr @hostlist_create(ptr noundef %60)
  store ptr %61, ptr %10, align 8
  br label %66

62:                                               ; preds = %54
  %63 = load ptr, ptr %10, align 8
  %64 = load ptr, ptr %6, align 8
  %65 = call i32 @hostlist_push_host(ptr noundef %63, ptr noundef %64)
  br label %66

66:                                               ; preds = %62, %59
  br label %68

67:                                               ; preds = %50
  store i8 1, ptr %8, align 1
  br label %68

68:                                               ; preds = %67, %66
  %69 = load i32, ptr %13, align 4
  %70 = load i32, ptr %9, align 4
  %71 = or i32 %70, %69
  store i32 %71, ptr %9, align 4
  %72 = load ptr, ptr %6, align 8
  call void @free(ptr noundef %72) #10
  call void @llvm.lifetime.end.p0(i64 4, ptr %13) #10
  br label %46, !llvm.loop !48

73:                                               ; preds = %46
  %74 = load i8, ptr %8, align 1, !range !11, !noundef !12
  %75 = trunc i8 %74 to i1
  br i1 %75, label %76, label %78

76:                                               ; preds = %73
  call void @set_cluster_tres(i1 noundef zeroext false)
  call void @_update_parts()
  %77 = call i32 @select_g_reconfigure()
  call void @power_save_exc_setup()
  br label %78

78:                                               ; preds = %76, %73
  %79 = load ptr, ptr %10, align 8
  %80 = icmp ne ptr %79, null
  br i1 %80, label %81, label %95

81:                                               ; preds = %78
  call void @llvm.lifetime.start.p0(i64 8, ptr %14) #10
  %82 = load ptr, ptr %10, align 8
  %83 = call ptr @hostlist_ranged_string_xmalloc(ptr noundef %82)
  store ptr %83, ptr %14, align 8
  %84 = load ptr, ptr %14, align 8
  %85 = call ptr (ptr, ...) @xstrdup_printf(ptr noundef @.str.142, ptr noundef %84)
  %86 = load ptr, ptr %5, align 8
  store ptr %85, ptr %86, align 8
  call void @slurm_xfree(ptr noundef %14)
  br label %87

87:                                               ; preds = %81
  %88 = load ptr, ptr %10, align 8
  %89 = icmp ne ptr %88, null
  br i1 %89, label %90, label %92

90:                                               ; preds = %87
  %91 = load ptr, ptr %10, align 8
  call void @hostlist_destroy(ptr noundef %91)
  br label %92

92:                                               ; preds = %90, %87
  store ptr null, ptr %10, align 8
  br label %93

93:                                               ; preds = %92
  br label %94

94:                                               ; preds = %93
  call void @llvm.lifetime.end.p0(i64 8, ptr %14) #10
  br label %95

95:                                               ; preds = %94, %78
  br label %96

96:                                               ; preds = %95, %44, %28
  call void @unlock_slurmctld(ptr noundef byval(%struct.slurmctld_lock_t) align 8 %11)
  %97 = load i8, ptr %8, align 1, !range !11, !noundef !12
  %98 = trunc i8 %97 to i1
  br i1 %98, label %99, label %102

99:                                               ; preds = %96
  %100 = load ptr, ptr @acct_db_conn, align 8
  %101 = call i32 @clusteracct_storage_g_cluster_tres(ptr noundef %100, ptr noundef null, ptr noundef null, i64 noundef 0, i16 noundef zeroext 11008)
  br label %102

102:                                              ; preds = %99, %96
  br label %103

103:                                              ; preds = %102
  %104 = load ptr, ptr %7, align 8
  %105 = icmp ne ptr %104, null
  br i1 %105, label %106, label %108

106:                                              ; preds = %103
  %107 = load ptr, ptr %7, align 8
  call void @hostlist_destroy(ptr noundef %107)
  br label %108

108:                                              ; preds = %106, %103
  store ptr null, ptr %7, align 8
  br label %109

109:                                              ; preds = %108
  br label %110

110:                                              ; preds = %109
  %111 = load i32, ptr %9, align 4
  store i32 %111, ptr %3, align 4
  store i32 1, ptr %12, align 4
  br label %112

112:                                              ; preds = %110, %18
  call void @llvm.lifetime.end.p0(i64 20, ptr %11) #10
  call void @llvm.lifetime.end.p0(i64 8, ptr %10) #10
  call void @llvm.lifetime.end.p0(i64 4, ptr %9) #10
  call void @llvm.lifetime.end.p0(i64 1, ptr %8) #10
  call void @llvm.lifetime.end.p0(i64 8, ptr %7) #10
  call void @llvm.lifetime.end.p0(i64 8, ptr %6) #10
  %113 = load i32, ptr %3, align 4
  ret i32 %113
}