; Function Attrs: nounwind uwtable
define dso_local range(i32 0, 2048) i32 @delete_nodes(ptr noundef %0, ptr noundef writeonly captures(none) %1) local_unnamed_addr #0 {
  %3 = alloca ptr, align 8
  %4 = load ptr, ptr getelementptr inbounds nuw (i8, ptr @slurm_conf, i64 1104), align 8
  %5 = tail call ptr @xstrstr(ptr noundef %4, ptr noundef nonnull @.str.133) #15
  %.not = icmp eq ptr %5, null
  br i1 %.not, label %6, label %9

6:                                                ; preds = %2
  %7 = tail call ptr @xstrdup(ptr noundef nonnull @.str.140) #15
  store ptr %7, ptr %1, align 8
  %8 = tail call i32 (ptr, ...) @error(ptr noundef nonnull @.str.135, ptr noundef %7) #15
  br label %45

9:                                                ; preds = %2
  tail call void @lock_slurmctld(ptr noundef nonnull byval(%struct.slurmctld_lock_t) align 8 @__const.delete_nodes.write_lock) #15
  %10 = tail call ptr @nodespec_to_hostlist(ptr noundef %0, i1 noundef zeroext true, ptr noundef null) #15
  %.not33 = icmp eq ptr %10, null
  br i1 %.not33, label %44, label %11

11:                                               ; preds = %9
  %12 = tail call i32 @hostlist_count(ptr noundef nonnull %10) #15
  %.not34 = icmp eq i32 %12, 0
  br i1 %.not34, label %14, label %.preheader

.preheader:                                       ; preds = %11
  %13 = tail call ptr @hostlist_shift(ptr noundef nonnull %10) #15
  %.not3552 = icmp eq ptr %13, null
  br i1 %.not3552, label %.thread70, label %.lr.ph

.thread70:                                        ; preds = %.preheader
  tail call void @unlock_slurmctld(ptr noundef nonnull byval(%struct.slurmctld_lock_t) align 8 @__const.delete_nodes.write_lock) #15
  br label %.thread47

14:                                               ; preds = %11
  %15 = tail call i32 @get_log_level() #15
  %16 = icmp sgt i32 %15, 2
  br i1 %16, label %17, label %.thread51

17:                                               ; preds = %14
  tail call void (i32, ptr, ...) @log_var(i32 noundef 3, ptr noundef nonnull @.str.20, ptr noundef nonnull @__func__.delete_nodes, ptr noundef %0) #15
  br label %.thread51

.lr.ph:                                           ; preds = %.preheader, %28
  %18 = phi ptr [ %30, %28 ], [ %13, %.preheader ]
  %.02555 = phi ptr [ %.1, %28 ], [ null, %.preheader ]
  %.12754 = phi i32 [ %29, %28 ], [ 0, %.preheader ]
  %.12953 = phi i8 [ %.2, %28 ], [ 0, %.preheader ]
  %19 = tail call ptr @find_node_record(ptr noundef nonnull %18) #15
  %.not.i = icmp eq ptr %19, null
  br i1 %.not.i, label %_delete_node.exit.thread, label %_delete_node.exit

_delete_node.exit.thread:                         ; preds = %.lr.ph
  %20 = tail call i32 (ptr, ...) @error(ptr noundef nonnull @.str.167, ptr noundef nonnull %18) #15
  br label %22

_delete_node.exit:                                ; preds = %.lr.ph
  %21 = tail call fastcc i32 @_delete_node_ptr(ptr noundef %19)
  %.not37 = icmp eq i32 %21, 0
  br i1 %.not37, label %28, label %22

22:                                               ; preds = %_delete_node.exit.thread, %_delete_node.exit
  %.0.i41 = phi i32 [ 2018, %_delete_node.exit.thread ], [ %21, %_delete_node.exit ]
  %23 = tail call i32 (ptr, ...) @error(ptr noundef nonnull @.str.141, ptr noundef nonnull %18) #15
  %.not38 = icmp eq ptr %.02555, null
  br i1 %.not38, label %24, label %26

24:                                               ; preds = %22
  %25 = tail call ptr @hostlist_create(ptr noundef nonnull %18) #15
  br label %28

26:                                               ; preds = %22
  %27 = tail call i32 @hostlist_push_host(ptr noundef nonnull %.02555, ptr noundef nonnull %18) #15
  br label %28

28:                                               ; preds = %_delete_node.exit, %24, %26
  %.0.i42 = phi i32 [ %.0.i41, %26 ], [ %.0.i41, %24 ], [ 0, %_delete_node.exit ]
  %.2 = phi i8 [ %.12953, %26 ], [ %.12953, %24 ], [ 1, %_delete_node.exit ]
  %.1 = phi ptr [ %.02555, %26 ], [ %25, %24 ], [ %.02555, %_delete_node.exit ]
  %29 = or i32 %.0.i42, %.12754
  tail call void @free(ptr noundef nonnull %18) #15
  %30 = tail call ptr @hostlist_shift(ptr noundef nonnull %10) #15
  %.not35 = icmp eq ptr %30, null
  br i1 %.not35, label %._crit_edge, label %.lr.ph, !llvm.loop !47

._crit_edge:                                      ; preds = %28
  %31 = trunc nuw i8 %.2 to i1
  br i1 %31, label %32, label %36

32:                                               ; preds = %._crit_edge
  tail call void @set_cluster_tres(i1 noundef zeroext false) #15
  %33 = load ptr, ptr @part_list, align 8
  %34 = tail call i32 @list_for_each(ptr noundef %33, ptr noundef nonnull @_foreach_build_part_bitmap, ptr noundef null) #15
  tail call void @set_partition_tres(i1 noundef zeroext false) #15
  %35 = tail call i32 @select_g_reconfigure() #15
  tail call void @power_save_exc_setup() #15
  br label %36

36:                                               ; preds = %32, %._crit_edge
  %.not36 = icmp eq ptr %.1, null
  br i1 %.not36, label %40, label %37

37:                                               ; preds = %36
  call void @llvm.lifetime.start.p0(i64 8, ptr nonnull %3) #15
  %38 = tail call ptr @hostlist_ranged_string_xmalloc(ptr noundef nonnull %.1) #15
  store ptr %38, ptr %3, align 8
  %39 = tail call ptr (ptr, ...) @xstrdup_printf(ptr noundef nonnull @.str.142, ptr noundef %38) #15
  store ptr %39, ptr %1, align 8
  call void @slurm_xfree(ptr noundef nonnull %3) #15
  call void @hostlist_destroy(ptr noundef nonnull %.1) #15
  call void @llvm.lifetime.end.p0(i64 8, ptr nonnull %3) #15
  call void @unlock_slurmctld(ptr noundef nonnull byval(%struct.slurmctld_lock_t) align 8 @__const.delete_nodes.write_lock) #15
  br i1 %31, label %41, label %.thread47

40:                                               ; preds = %36
  tail call void @unlock_slurmctld(ptr noundef nonnull byval(%struct.slurmctld_lock_t) align 8 @__const.delete_nodes.write_lock) #15
  br i1 %31, label %41, label %.thread47

41:                                               ; preds = %37, %40
  %42 = load ptr, ptr @acct_db_conn, align 8
  %43 = call i32 @clusteracct_storage_g_cluster_tres(ptr noundef %42, ptr noundef null, ptr noundef null, i64 noundef 0, i16 noundef zeroext 11008) #15
  br label %.thread47

.thread51:                                        ; preds = %17, %14
  tail call void @unlock_slurmctld(ptr noundef nonnull byval(%struct.slurmctld_lock_t) align 8 @__const.delete_nodes.write_lock) #15
  br label %.thread47

44:                                               ; preds = %9
  tail call void @unlock_slurmctld(ptr noundef nonnull byval(%struct.slurmctld_lock_t) align 8 @__const.delete_nodes.write_lock) #15
  br label %45

.thread47:                                        ; preds = %37, %.thread70, %41, %40, %.thread51
  %.0264549 = phi i32 [ 2018, %.thread51 ], [ %29, %40 ], [ %29, %41 ], [ 0, %.thread70 ], [ %29, %37 ]
  call void @hostlist_destroy(ptr noundef nonnull %10) #15
  br label %45

45:                                               ; preds = %44, %.thread47, %6
  %.0 = phi i32 [ 2002, %6 ], [ %.0264549, %.thread47 ], [ 2018, %44 ]
  ret i32 %.0
}